; Function Attrs: mustprogress uwtable
define dso_local void @_ZN30btMultiBodySphericalJointMotor16finalizeMultiDofEv(ptr noundef nonnull align 8 dereferenceable(204) %this) unnamed_addr #0 align 2 {
entry:
  tail call void @_ZN21btMultiBodyConstraint25allocateJacobiansMultiDofEv(ptr noundef nonnull align 8 dereferenceable(96) %this)
  %m_bodyA = getelementptr inbounds i8, ptr %this, i64 8
  %0 = load ptr, ptr %m_bodyA, align 8
  %m_linkA = getelementptr inbounds i8, ptr %this, i64 24
  %1 = load i32, ptr %m_linkA, align 8
  %m_data.i.i = getelementptr inbounds i8, ptr %0, i64 192
  %2 = load ptr, ptr %m_data.i.i, align 8
  %idxprom.i.i = sext i32 %1 to i64
  %m_dofOffset = getelementptr inbounds %struct.btMultibodyLink, ptr %2, i64 %idxprom.i.i, i32 9
  %3 = load i32, ptr %m_dofOffset, align 8
  %add2 = add nsw i32 %3, 6
  %m_numRows.i = getelementptr inbounds i8, ptr %this, i64 36
  %4 = load i32, ptr %m_numRows.i, align 4
  %m_jacSizeBoth.i = getelementptr inbounds i8, ptr %this, i64 44
  %m_data.i.i1 = getelementptr inbounds i8, ptr %this, i64 80
  %5 = load ptr, ptr %m_data.i.i1, align 8
  %idxprom.i.i2 = sext i32 %4 to i64
  %arrayidx.i.i3 = getelementptr inbounds float, ptr %5, i64 %idxprom.i.i2
  %idxprom = zext i32 %add2 to i64
  %arrayidx = getelementptr inbounds float, ptr %arrayidx.i.i3, i64 %idxprom
  store float 1.000000e+00, ptr %arrayidx, align 4
  %6 = load i32, ptr %m_jacSizeBoth.i, align 4
  %m_numDofsFinalized = getelementptr inbounds i8, ptr %this, i64 56
  store i32 %6, ptr %m_numDofsFinalized, align 8
  ret void
}